target datalayout = "e-m:e-p270:32:32-p271:32:32-p272:64:64-i64:64-i128:128-f80:128-n8:16:32:64-S128"
target triple = "x86_64-pc-linux-gnu"

%struct.ident_t = type { i32, i32, i32, i32, ptr }
%"class.LightGBM::ColSampler" = type { ptr, double, double, i8, i32, i32, %"class.LightGBM::Random", %"class.std::vector.40", %"class.std::vector.35", %"class.std::vector.35", %"class.std::vector.45" }
%"class.LightGBM::Random" = type { i32 }
%"class.std::vector.40" = type { %"struct.std::_Vector_base.41" }
%"struct.std::_Vector_base.41" = type { %"struct.std::_Vector_base<signed char, std::allocator<signed char>>::_Vector_impl" }
%"struct.std::_Vector_base<signed char, std::allocator<signed char>>::_Vector_impl" = type { %"struct.std::_Vector_base<signed char, std::allocator<signed char>>::_Vector_impl_data" }
%"struct.std::_Vector_base<signed char, std::allocator<signed char>>::_Vector_impl_data" = type { ptr, ptr, ptr }
%"class.std::vector.45" = type { %"struct.std::_Vector_base.46" }
%"struct.std::_Vector_base.46" = type { %"struct.std::_Vector_base<std::unordered_set<int>, std::allocator<std::unordered_set<int>>>::_Vector_impl" }
%"struct.std::_Vector_base<std::unordered_set<int>, std::allocator<std::unordered_set<int>>>::_Vector_impl" = type { %"struct.std::_Vector_base<std::unordered_set<int>, std::allocator<std::unordered_set<int>>>::_Vector_impl_data" }
%"struct.std::_Vector_base<std::unordered_set<int>, std::allocator<std::unordered_set<int>>>::_Vector_impl_data" = type { ptr, ptr, ptr }
%"class.std::vector.35" = type { %"struct.std::_Vector_base.36" }
%"struct.std::_Vector_base.36" = type { %"struct.std::_Vector_base<int, std::allocator<int>>::_Vector_impl" }
%"struct.std::_Vector_base<int, std::allocator<int>>::_Vector_impl" = type { %"struct.std::_Vector_base<int, std::allocator<int>>::_Vector_impl_data" }
%"struct.std::_Vector_base<int, std::allocator<int>>::_Vector_impl_data" = type { ptr, ptr, ptr }
%"class.std::vector.90" = type { %"struct.std::_Vector_base.91" }
%"struct.std::_Vector_base.91" = type { %"struct.std::_Vector_base<std::__cxx11::basic_string<char>, std::allocator<std::__cxx11::basic_string<char>>>::_Vector_impl" }
%"struct.std::_Vector_base<std::__cxx11::basic_string<char>, std::allocator<std::__cxx11::basic_string<char>>>::_Vector_impl" = type { %"struct.std::_Vector_base<std::__cxx11::basic_string<char>, std::allocator<std::__cxx11::basic_string<char>>>::_Vector_impl_data" }
%"struct.std::_Vector_base<std::__cxx11::basic_string<char>, std::allocator<std::__cxx11::basic_string<char>>>::_Vector_impl_data" = type { ptr, ptr, ptr }
%"class.std::vector.95" = type { %"struct.std::_Vector_base.96" }
%"struct.std::_Vector_base.96" = type { %"struct.std::_Vector_base<double, std::allocator<double>>::_Vector_impl" }
%"struct.std::_Vector_base<double, std::allocator<double>>::_Vector_impl" = type { %"struct.std::_Vector_base<double, std::allocator<double>>::_Vector_impl_data" }
%"struct.std::_Vector_base<double, std::allocator<double>>::_Vector_impl_data" = type { ptr, ptr, ptr }
%"class.std::__cxx11::basic_string" = type { %"struct.std::__cxx11::basic_string<char>::_Alloc_hider", i64, %union.anon.85 }
%"struct.std::__cxx11::basic_string<char>::_Alloc_hider" = type { ptr }
%union.anon.85 = type { i64, [8 x i8] }
%"class.std::vector.100" = type { %"struct.std::_Vector_base.101" }
%"struct.std::_Vector_base.101" = type { %"struct.std::_Vector_base<std::vector<double>, std::allocator<std::vector<double>>>::_Vector_impl" }
%"struct.std::_Vector_base<std::vector<double>, std::allocator<std::vector<double>>>::_Vector_impl" = type { %"struct.std::_Vector_base<std::vector<double>, std::allocator<std::vector<double>>>::_Vector_impl_data" }
%"struct.std::_Vector_base<std::vector<double>, std::allocator<std::vector<double>>>::_Vector_impl_data" = type { ptr, ptr, ptr }
%"class.std::mutex" = type { %"class.std::__mutex_base" }
%"class.std::__mutex_base" = type { %union.pthread_mutex_t }
%union.pthread_mutex_t = type { %struct.__pthread_mutex_s }
%struct.__pthread_mutex_s = type { i32, i32, i32, i32, i32, i16, i16, %struct.__pthread_internal_list }
%struct.__pthread_internal_list = type { ptr, ptr }
%"class.LightGBM::Dataset" = type { %"class.std::__cxx11::basic_string", %"class.std::vector.127", %"class.std::vector.35", i32, i32, i32, [4 x i8], %"class.LightGBM::Metadata", i32, %"class.std::vector.90", i32, %"class.std::vector.35", %"class.std::vector.35", %"class.std::vector.35", %"class.std::vector.137", %"class.std::vector.35", %"class.std::vector.35", i8, i32, %"class.std::vector.35", %"class.std::vector.100", i32, i32, i8, i8, %"class.std::vector.35", %"class.std::vector.139", i8, i32, i8, %"class.std::vector.35", i32, %"class.std::__cxx11::basic_string", i32, %"class.std::mutex", %"class.std::__cxx11::basic_string" }
%"class.std::vector.127" = type { %"struct.std::_Vector_base.128" }
%"struct.std::_Vector_base.128" = type { %"struct.std::_Vector_base<std::unique_ptr<LightGBM::FeatureGroup>, std::allocator<std::unique_ptr<LightGBM::FeatureGroup>>>::_Vector_impl" }
%"struct.std::_Vector_base<std::unique_ptr<LightGBM::FeatureGroup>, std::allocator<std::unique_ptr<LightGBM::FeatureGroup>>>::_Vector_impl" = type { %"struct.std::_Vector_base<std::unique_ptr<LightGBM::FeatureGroup>, std::allocator<std::unique_ptr<LightGBM::FeatureGroup>>>::_Vector_impl_data" }
%"struct.std::_Vector_base<std::unique_ptr<LightGBM::FeatureGroup>, std::allocator<std::unique_ptr<LightGBM::FeatureGroup>>>::_Vector_impl_data" = type { ptr, ptr, ptr }
%"class.LightGBM::Metadata" = type <{ %"class.std::__cxx11::basic_string", i32, i32, i32, [4 x i8], %"class.std::vector.132", %"class.std::vector.132", %"class.std::vector.35", %"class.std::vector.90", %"class.std::vector.35", %"class.std::vector.132", i32, [4 x i8], i64, %"class.std::vector.95", %"class.std::vector.35", %"class.std::mutex", i8, i8, i8, i8, [4 x i8] }>
%"class.std::vector.132" = type { %"struct.std::_Vector_base.133" }
%"struct.std::_Vector_base.133" = type { %"struct.std::_Vector_base<float, std::allocator<float>>::_Vector_impl" }
%"struct.std::_Vector_base<float, std::allocator<float>>::_Vector_impl" = type { %"struct.std::_Vector_base<float, std::allocator<float>>::_Vector_impl_data" }
%"struct.std::_Vector_base<float, std::allocator<float>>::_Vector_impl_data" = type { ptr, ptr, ptr }
%"class.std::vector.137" = type { %"struct.std::_Vector_base.138" }
%"struct.std::_Vector_base.138" = type { %"struct.std::_Vector_base<unsigned long, std::allocator<unsigned long>>::_Vector_impl" }
%"struct.std::_Vector_base<unsigned long, std::allocator<unsigned long>>::_Vector_impl" = type { %"struct.std::_Vector_base<unsigned long, std::allocator<unsigned long>>::_Vector_impl_data" }
%"struct.std::_Vector_base<unsigned long, std::allocator<unsigned long>>::_Vector_impl_data" = type { ptr, ptr, ptr }
%"class.std::vector.139" = type { %"struct.std::_Vector_base.140" }
%"struct.std::_Vector_base.140" = type { %"struct.std::_Vector_base<std::vector<float>, std::allocator<std::vector<float>>>::_Vector_impl" }
%"struct.std::_Vector_base<std::vector<float>, std::allocator<std::vector<float>>>::_Vector_impl" = type { %"struct.std::_Vector_base<std::vector<float>, std::allocator<std::vector<float>>>::_Vector_impl_data" }
%"struct.std::_Vector_base<std::vector<float>, std::allocator<std::vector<float>>>::_Vector_impl_data" = type { ptr, ptr, ptr }

@1 = private unnamed_addr constant %struct.ident_t { i32 0, i32 514, i32 0, i32 22, ptr @0 }, align 8

; Function Attrs: mustprogress nounwind uwtable
define linkonce_odr noundef nonnull align 4 dereferenceable(4) ptr @_ZNKSt6vectorIiSaIiEEixEm(ptr noundef nonnull align 8 dereferenceable(24) %0, i64 noundef %1) #0 comdat align 2 {
  %3 = alloca ptr, align 8
  %4 = alloca i64, align 8
  store ptr %0, ptr %3, align 8, !tbaa !190
  store i64 %1, ptr %4, align 8, !tbaa !150
  %5 = load ptr, ptr %3, align 8
  %6 = getelementptr inbounds nuw %"struct.std::_Vector_base.36", ptr %5, i32 0, i32 0
  %7 = getelementptr inbounds nuw %"struct.std::_Vector_base<int, std::allocator<int>>::_Vector_impl_data", ptr %6, i32 0, i32 0
  %8 = load ptr, ptr %7, align 8, !tbaa !247
  %9 = load i64, ptr %4, align 8, !tbaa !150
  %10 = getelementptr inbounds nuw i32, ptr %8, i64 %9
  ret ptr %10
}

; Function Attrs: mustprogress nounwind uwtable
define linkonce_odr noundef nonnull align 1 dereferenceable(1) ptr @_ZNSt6vectorIaSaIaEEixEm(ptr noundef nonnull align 8 dereferenceable(24) %0, i64 noundef %1) #0 comdat align 2 {
  %3 = alloca ptr, align 8
  %4 = alloca i64, align 8
  store ptr %0, ptr %3, align 8, !tbaa !195
  store i64 %1, ptr %4, align 8, !tbaa !150
  %5 = load ptr, ptr %3, align 8
  %6 = getelementptr inbounds nuw %"struct.std::_Vector_base.41", ptr %5, i32 0, i32 0
  %7 = getelementptr inbounds nuw %"struct.std::_Vector_base<signed char, std::allocator<signed char>>::_Vector_impl_data", ptr %6, i32 0, i32 0
  %8 = load ptr, ptr %7, align 8, !tbaa !356
  %9 = load i64, ptr %4, align 8, !tbaa !150
  %10 = getelementptr inbounds nuw i8, ptr %8, i64 %9
  ret ptr %10
}

; Function Attrs: inlinehint mustprogress nounwind uwtable
define linkonce_odr noundef i32 @_ZNK8LightGBM7Dataset17InnerFeatureIndexEi(ptr noundef nonnull align 8 dereferenceable(864) %0, i32 noundef %1) #4 comdat align 2 {
  %3 = alloca ptr, align 8
  %4 = alloca i32, align 4
  store ptr %0, ptr %3, align 8, !tbaa !9
  store i32 %1, ptr %4, align 4, !tbaa !149
  %5 = load ptr, ptr %3, align 8
  %6 = getelementptr inbounds nuw %"class.LightGBM::Dataset", ptr %5, i32 0, i32 2
  %7 = load i32, ptr %4, align 4, !tbaa !149
  %8 = sext i32 %7 to i64
  %9 = call noundef nonnull align 4 dereferenceable(4) ptr @_ZNKSt6vectorIiSaIiEEixEm(ptr noundef nonnull align 8 dereferenceable(24) %6, i64 noundef %8) #7
  %10 = load i32, ptr %9, align 4, !tbaa !149
  ret i32 %10
}

; Function Attrs: mustprogress nounwind uwtable
define linkonce_odr noundef nonnull align 4 dereferenceable(4) ptr @_ZNSt6vectorIiSaIiEEixEm(ptr noundef nonnull align 8 dereferenceable(24) %0, i64 noundef %1) #0 comdat align 2 {
  %3 = alloca ptr, align 8
  %4 = alloca i64, align 8
  store ptr %0, ptr %3, align 8, !tbaa !190
  store i64 %1, ptr %4, align 8, !tbaa !150
  %5 = load ptr, ptr %3, align 8
  %6 = getelementptr inbounds nuw %"struct.std::_Vector_base.36", ptr %5, i32 0, i32 0
  %7 = getelementptr inbounds nuw %"struct.std::_Vector_base<int, std::allocator<int>>::_Vector_impl_data", ptr %6, i32 0, i32 0
  %8 = load ptr, ptr %7, align 8, !tbaa !247
  %9 = load i64, ptr %4, align 8, !tbaa !150
  %10 = getelementptr inbounds nuw i32, ptr %8, i64 %9
  ret ptr %10
}

; Function Attrs: noinline norecurse nounwind uwtable
define internal void @_ZN8LightGBM10ColSampler9GetByNodeEPKNS_4TreeEi.omp_outlined.15(ptr noalias noundef %0, ptr noalias noundef %1, ptr noundef nonnull align 4 dereferenceable(4) %2, ptr noundef nonnull align 8 dereferenceable(8) %3, ptr noundef nonnull align 8 dereferenceable(24) %4, ptr noundef %5, ptr noundef nonnull align 8 dereferenceable(24) %6) #22 {
  %8 = alloca ptr, align 8
  %9 = alloca ptr, align 8
  %10 = alloca ptr, align 8
  %11 = alloca ptr, align 8
  %12 = alloca ptr, align 8
  %13 = alloca ptr, align 8
  %14 = alloca ptr, align 8
  %15 = alloca i32, align 4
  %16 = alloca i32, align 4
  %17 = alloca i32, align 4
  %18 = alloca i32, align 4
  %19 = alloca i32, align 4
  %20 = alloca i32, align 4
  %21 = alloca i32, align 4
  %22 = alloca i32, align 4
  %23 = alloca i32, align 4
  %24 = alloca i32, align 4
  %25 = alloca i32, align 4
  store ptr %0, ptr %8, align 8, !tbaa !180
  store ptr %1, ptr %9, align 8, !tbaa !180
  store ptr %2, ptr %10, align 8, !tbaa !180
  store ptr %3, ptr %11, align 8, !tbaa !585
  store ptr %4, ptr %12, align 8, !tbaa !190
  store ptr %5, ptr %13, align 8, !tbaa !354
  store ptr %6, ptr %14, align 8, !tbaa !195
  %26 = load ptr, ptr %10, align 8, !tbaa !180
  %27 = load ptr, ptr %11, align 8, !tbaa !585
  %28 = load ptr, ptr %12, align 8, !tbaa !190
  %29 = load ptr, ptr %13, align 8, !tbaa !354
  %30 = load ptr, ptr %14, align 8, !tbaa !195
  call void @llvm.lifetime.start.p0(i64 4, ptr %15) #7
  call void @llvm.lifetime.start.p0(i64 4, ptr %16) #7
  %31 = load i32, ptr %26, align 4, !tbaa !149
  store i32 %31, ptr %16, align 4, !tbaa !149
  call void @llvm.lifetime.start.p0(i64 4, ptr %17) #7
  %32 = load i32, ptr %16, align 4, !tbaa !149
  %33 = sub nsw i32 %32, 0
  %34 = sdiv i32 %33, 1
  %35 = sub nsw i32 %34, 1
  store i32 %35, ptr %17, align 4, !tbaa !149
  call void @llvm.lifetime.start.p0(i64 4, ptr %18) #7
  store i32 0, ptr %18, align 4, !tbaa !149
  call void @llvm.lifetime.end.p0(i64 4, ptr %18) #7
  %36 = load i32, ptr %16, align 4, !tbaa !149
  %37 = icmp slt i32 0, %36
  br i1 %37, label %38, label %97

38:                                               ; preds = %7
  call void @llvm.lifetime.start.p0(i64 4, ptr %19) #7
  store i32 0, ptr %19, align 4, !tbaa !149
  call void @llvm.lifetime.start.p0(i64 4, ptr %20) #7
  %39 = load i32, ptr %17, align 4, !tbaa !149
  store i32 %39, ptr %20, align 4, !tbaa !149
  call void @llvm.lifetime.start.p0(i64 4, ptr %21) #7
  store i32 1, ptr %21, align 4, !tbaa !149
  call void @llvm.lifetime.start.p0(i64 4, ptr %22) #7
  store i32 0, ptr %22, align 4, !tbaa !149
  call void @llvm.lifetime.start.p0(i64 4, ptr %23) #7
  %40 = load ptr, ptr %8, align 8
  %41 = load i32, ptr %40, align 4, !tbaa !149
  call void @__kmpc_for_static_init_4(ptr @1, i32 %41, i32 33, ptr %22, ptr %19, ptr %20, ptr %21, i32 1, i32 512)
  br label %42

42:                                               ; preds = %87, %38
  %43 = load i32, ptr %20, align 4, !tbaa !149
  %44 = load i32, ptr %17, align 4, !tbaa !149
  %45 = icmp sgt i32 %43, %44
  br i1 %45, label %46, label %48

46:                                               ; preds = %42
  %47 = load i32, ptr %17, align 4, !tbaa !149
  br label %50

48:                                               ; preds = %42
  %49 = load i32, ptr %20, align 4, !tbaa !149
  br label %50

50:                                               ; preds = %48, %46
  %51 = phi i32 [ %47, %46 ], [ %49, %48 ]
  store i32 %51, ptr %20, align 4, !tbaa !149
  %52 = load i32, ptr %19, align 4, !tbaa !149
  store i32 %52, ptr %15, align 4, !tbaa !149
  %53 = load i32, ptr %15, align 4, !tbaa !149
  %54 = load i32, ptr %20, align 4, !tbaa !149
  %55 = icmp sle i32 %53, %54
  br i1 %55, label %57, label %56

56:                                               ; preds = %50
  br label %94

57:                                               ; preds = %50
  br label %58

58:                                               ; preds = %83, %57
  %59 = load i32, ptr %15, align 4, !tbaa !149
  %60 = load i32, ptr %20, align 4, !tbaa !149
  %61 = icmp sle i32 %59, %60
  br i1 %61, label %63, label %62

62:                                               ; preds = %58
  br label %86

63:                                               ; preds = %58
  %64 = load i32, ptr %15, align 4, !tbaa !149
  %65 = mul nsw i32 %64, 1
  %66 = add nsw i32 0, %65
  store i32 %66, ptr %23, align 4, !tbaa !149
  call void @llvm.lifetime.start.p0(i64 4, ptr %24) #7
  %67 = load ptr, ptr %27, align 8, !tbaa !190
  %68 = load i32, ptr %23, align 4, !tbaa !149
  %69 = sext i32 %68 to i64
  %70 = call noundef nonnull align 4 dereferenceable(4) ptr @_ZNSt6vectorIiSaIiEEixEm(ptr noundef nonnull align 8 dereferenceable(24) %28, i64 noundef %69) #7
  %71 = load i32, ptr %70, align 4, !tbaa !149
  %72 = sext i32 %71 to i64
  %73 = call noundef nonnull align 4 dereferenceable(4) ptr @_ZNSt6vectorIiSaIiEEixEm(ptr noundef nonnull align 8 dereferenceable(24) %67, i64 noundef %72) #7
  %74 = load i32, ptr %73, align 4, !tbaa !149
  store i32 %74, ptr %24, align 4, !tbaa !149
  call void @llvm.lifetime.start.p0(i64 4, ptr %25) #7
  %75 = getelementptr inbounds nuw %"class.LightGBM::ColSampler", ptr %29, i32 0, i32 0
  %76 = load ptr, ptr %75, align 8, !tbaa !515
  %77 = load i32, ptr %24, align 4, !tbaa !149
  %78 = call noundef i32 @_ZNK8LightGBM7Dataset17InnerFeatureIndexEi(ptr noundef nonnull align 8 dereferenceable(864) %76, i32 noundef %77)
  store i32 %78, ptr %25, align 4, !tbaa !149
  %79 = load i32, ptr %25, align 4, !tbaa !149
  %80 = sext i32 %79 to i64
  %81 = call noundef nonnull align 1 dereferenceable(1) ptr @_ZNSt6vectorIaSaIaEEixEm(ptr noundef nonnull align 8 dereferenceable(24) %30, i64 noundef %80) #7
  store i8 1, ptr %81, align 1, !tbaa !187
  call void @llvm.lifetime.end.p0(i64 4, ptr %25) #7
  call void @llvm.lifetime.end.p0(i64 4, ptr %24) #7
  br label %82

82:                                               ; preds = %63
  br label %83

83:                                               ; preds = %82
  %84 = load i32, ptr %15, align 4, !tbaa !149
  %85 = add nsw i32 %84, 1
  store i32 %85, ptr %15, align 4, !tbaa !149
  br label %58

86:                                               ; preds = %62
  br label %87

87:                                               ; preds = %86
  %88 = load i32, ptr %19, align 4, !tbaa !149
  %89 = load i32, ptr %21, align 4, !tbaa !149
  %90 = add nsw i32 %88, %89
  store i32 %90, ptr %19, align 4, !tbaa !149
  %91 = load i32, ptr %20, align 4, !tbaa !149
  %92 = load i32, ptr %21, align 4, !tbaa !149
  %93 = add nsw i32 %91, %92
  store i32 %93, ptr %20, align 4, !tbaa !149
  br label %42

94:                                               ; preds = %56
  %95 = load ptr, ptr %8, align 8
  %96 = load i32, ptr %95, align 4, !tbaa !149
  call void @__kmpc_for_static_fini(ptr @1, i32 %96)
  call void @llvm.lifetime.end.p0(i64 4, ptr %23) #7
  call void @llvm.lifetime.end.p0(i64 4, ptr %22) #7
  call void @llvm.lifetime.end.p0(i64 4, ptr %21) #7
  call void @llvm.lifetime.end.p0(i64 4, ptr %20) #7
  call void @llvm.lifetime.end.p0(i64 4, ptr %19) #7
  br label %97

97:                                               ; preds = %94, %7
  call void @llvm.lifetime.end.p0(i64 4, ptr %17) #7
  call void @llvm.lifetime.end.p0(i64 4, ptr %16) #7
  call void @llvm.lifetime.end.p0(i64 4, ptr %15) #7
  ret void
}