; Function Attrs: noinline norecurse nounwind uwtable
define internal void @_ZN8LightGBM10ColSampler9GetByNodeEPKNS_4TreeEi.omp_outlined.15(ptr noalias noundef readonly captures(none) %0, ptr noalias readnone captures(none) %1, ptr noundef nonnull readonly align 4 captures(none) dereferenceable(4) %2, ptr noundef nonnull readonly align 8 captures(none) dereferenceable(8) %3, ptr noundef nonnull readonly align 8 captures(none) dereferenceable(24) %4, ptr noundef readonly captures(none) %5, ptr noundef nonnull readonly align 8 captures(none) dereferenceable(24) %6) #24 {
  %8 = alloca i32, align 4
  %9 = alloca i32, align 4
  %10 = alloca i32, align 4
  %11 = alloca i32, align 4
  %12 = load i32, ptr %2, align 4, !tbaa !209
  %13 = add nsw i32 %12, -1
  %14 = icmp sgt i32 %12, 0
  br i1 %14, label %15, label %47

15:                                               ; preds = %7
  call void @llvm.lifetime.start.p0(i64 4, ptr nonnull %8) #21
  store i32 0, ptr %8, align 4, !tbaa !209
  call void @llvm.lifetime.start.p0(i64 4, ptr nonnull %9) #21
  store i32 %13, ptr %9, align 4, !tbaa !209
  call void @llvm.lifetime.start.p0(i64 4, ptr nonnull %10) #21
  store i32 1, ptr %10, align 4, !tbaa !209
  call void @llvm.lifetime.start.p0(i64 4, ptr nonnull %11) #21
  store i32 0, ptr %11, align 4, !tbaa !209
  %16 = load i32, ptr %0, align 4, !tbaa !209
  call void @__kmpc_for_static_init_4(ptr nonnull @1, i32 %16, i32 33, ptr nonnull %11, ptr nonnull %8, ptr nonnull %9, ptr nonnull %10, i32 1, i32 512)
  %17 = load i32, ptr %9, align 4, !tbaa !209
  %18 = call i32 @llvm.smin.i32(i32 %17, i32 %13)
  store i32 %18, ptr %9, align 4, !tbaa !209
  %19 = load i32, ptr %8, align 4, !tbaa !209
  %.not22 = icmp sgt i32 %19, %18
  br i1 %.not22, label %._crit_edge23, label %.preheader

.preheader:                                       ; preds = %15, %._crit_edge
  %20 = phi i32 [ %46, %._crit_edge ], [ %18, %15 ]
  %21 = phi i32 [ %44, %._crit_edge ], [ %19, %15 ]
  %.not1920 = icmp sgt i32 %21, %20
  br i1 %.not1920, label %._crit_edge, label %.lr.ph.preheader

.lr.ph.preheader:                                 ; preds = %.preheader
  %22 = sext i32 %21 to i64
  br label %.lr.ph

.lr.ph:                                           ; preds = %.lr.ph.preheader, %.lr.ph
  %indvars.iv = phi i64 [ %22, %.lr.ph.preheader ], [ %indvars.iv.next, %.lr.ph ]
  %23 = load ptr, ptr %3, align 8, !tbaa !365
  %24 = load ptr, ptr %4, align 8, !tbaa !168
  %25 = getelementptr inbounds nuw i32, ptr %24, i64 %indvars.iv
  %26 = load i32, ptr %25, align 4, !tbaa !209
  %27 = sext i32 %26 to i64
  %28 = load ptr, ptr %23, align 8, !tbaa !168
  %29 = getelementptr inbounds nuw i32, ptr %28, i64 %27
  %30 = load i32, ptr %29, align 4, !tbaa !209
  %31 = load ptr, ptr %5, align 8, !tbaa !359
  %32 = getelementptr inbounds nuw i8, ptr %31, i64 56
  %33 = sext i32 %30 to i64
  %34 = load ptr, ptr %32, align 8, !tbaa !168
  %35 = getelementptr inbounds nuw i32, ptr %34, i64 %33
  %36 = load i32, ptr %35, align 4, !tbaa !209
  %37 = sext i32 %36 to i64
  %38 = load ptr, ptr %6, align 8, !tbaa !231
  %39 = getelementptr inbounds nuw i8, ptr %38, i64 %37
  store i8 1, ptr %39, align 1, !tbaa !232
  %indvars.iv.next = add nsw i64 %indvars.iv, 1
  %40 = load i32, ptr %9, align 4, !tbaa !209
  %41 = sext i32 %40 to i64
  %.not19.not = icmp slt i64 %indvars.iv, %41
  br i1 %.not19.not, label %.lr.ph, label %._crit_edge.loopexit

._crit_edge.loopexit:                             ; preds = %.lr.ph
  %.pre = load i32, ptr %8, align 4, !tbaa !209
  br label %._crit_edge

._crit_edge:                                      ; preds = %._crit_edge.loopexit, %.preheader
  %42 = phi i32 [ %21, %.preheader ], [ %.pre, %._crit_edge.loopexit ]
  %.lcssa = phi i32 [ %20, %.preheader ], [ %40, %._crit_edge.loopexit ]
  %43 = load i32, ptr %10, align 4, !tbaa !209
  %44 = add nsw i32 %43, %42
  store i32 %44, ptr %8, align 4, !tbaa !209
  %45 = add nsw i32 %43, %.lcssa
  %46 = call i32 @llvm.smin.i32(i32 %45, i32 %13)
  store i32 %46, ptr %9, align 4, !tbaa !209
  %.not = icmp sgt i32 %44, %46
  br i1 %.not, label %._crit_edge23, label %.preheader

._crit_edge23:                                    ; preds = %._crit_edge, %15
  call void @__kmpc_for_static_fini(ptr nonnull @1, i32 %16)
  call void @llvm.lifetime.end.p0(i64 4, ptr nonnull %11) #21
  call void @llvm.lifetime.end.p0(i64 4, ptr nonnull %10) #21
  call void @llvm.lifetime.end.p0(i64 4, ptr nonnull %9) #21
  call void @llvm.lifetime.end.p0(i64 4, ptr nonnull %8) #21
  br label %47

47:                                               ; preds = %._crit_edge23, %7
  ret void
}